target datalayout = "e-m:e-p270:32:32-p271:32:32-p272:64:64-i64:64-i128:128-f80:128-n8:16:32:64-S128"
target triple = "x86_64-pc-linux-gnu"

@usertime = internal global i32 1, align 4

; Function Attrs: nounwind uwtable
define internal double @Time_F(i32 noundef %0) #0 {
  %2 = alloca i32, align 4
  %3 = alloca double, align 8
  store i32 %0, ptr %2, align 4, !tbaa !4
  call void @llvm.lifetime.start.p0(i64 8, ptr %3) #11
  %4 = load i32, ptr %2, align 4, !tbaa !4
  %5 = load i32, ptr @usertime, align 4, !tbaa !4
  %6 = call double @app_tminterval(i32 noundef %4, i32 noundef %5)
  store double %6, ptr %3, align 8, !tbaa !44
  %7 = load i32, ptr %2, align 4, !tbaa !4
  %8 = icmp eq i32 %7, 1
  br i1 %8, label %9, label %11

9:                                                ; preds = %1
  %10 = call i32 @alarm(i32 noundef 0) #11
  br label %11

11:                                               ; preds = %9, %1
  %12 = load double, ptr %3, align 8, !tbaa !44
  call void @llvm.lifetime.end.p0(i64 8, ptr %3) #11
  ret double %12
}