; Function Attrs: nounwind uwtable
define internal fastcc double @Time_F(i32 noundef range(i32 0, 2) %0) unnamed_addr #0 {
  %.b = load i1, ptr @usertime, align 4
  %not..b = xor i1 %.b, true
  %2 = zext i1 %not..b to i32
  %3 = tail call double @app_tminterval(i32 noundef %0, i32 noundef %2) #14
  %.not = icmp eq i32 %0, 0
  br i1 %.not, label %6, label %4

4:                                                ; preds = %1
  %5 = tail call i32 @alarm(i32 noundef 0) #14
  br label %6

6:                                                ; preds = %4, %1
  ret double %3
}